target datalayout = "e-m:e-p270:32:32-p271:32:32-p272:64:64-i64:64-i128:128-f80:128-n8:16:32:64-S128"
target triple = "x86_64-pc-linux-gnu"

%struct.OSQPCscMatrix = type { i64, i64, ptr, ptr, ptr, i64, i64 }

; Function Attrs: nounwind uwtable
define void @csc_AtDA_extract_diag(ptr noundef %0, ptr noundef %1, ptr noundef %2) #0 {
  %4 = alloca ptr, align 8
  %5 = alloca ptr, align 8
  %6 = alloca ptr, align 8
  %7 = alloca i64, align 8
  %8 = alloca i64, align 8
  %9 = alloca i64, align 8
  %10 = alloca ptr, align 8
  %11 = alloca ptr, align 8
  %12 = alloca ptr, align 8
  store ptr %0, ptr %4, align 8, !tbaa !16
  store ptr %1, ptr %5, align 8, !tbaa !3
  store ptr %2, ptr %6, align 8, !tbaa !3
  call void @llvm.lifetime.start.p0(i64 8, ptr %7) #3
  call void @llvm.lifetime.start.p0(i64 8, ptr %8) #3
  call void @llvm.lifetime.start.p0(i64 8, ptr %9) #3
  %13 = load ptr, ptr %4, align 8, !tbaa !16
  %14 = getelementptr inbounds nuw %struct.OSQPCscMatrix, ptr %13, i32 0, i32 1
  %15 = load i64, ptr %14, align 8, !tbaa !24
  store i64 %15, ptr %9, align 8, !tbaa !10
  call void @llvm.lifetime.start.p0(i64 8, ptr %10) #3
  %16 = load ptr, ptr %4, align 8, !tbaa !16
  %17 = getelementptr inbounds nuw %struct.OSQPCscMatrix, ptr %16, i32 0, i32 2
  %18 = load ptr, ptr %17, align 8, !tbaa !23
  store ptr %18, ptr %10, align 8, !tbaa !17
  call void @llvm.lifetime.start.p0(i64 8, ptr %11) #3
  %19 = load ptr, ptr %4, align 8, !tbaa !16
  %20 = getelementptr inbounds nuw %struct.OSQPCscMatrix, ptr %19, i32 0, i32 3
  %21 = load ptr, ptr %20, align 8, !tbaa !26
  store ptr %21, ptr %11, align 8, !tbaa !17
  call void @llvm.lifetime.start.p0(i64 8, ptr %12) #3
  %22 = load ptr, ptr %4, align 8, !tbaa !16
  %23 = getelementptr inbounds nuw %struct.OSQPCscMatrix, ptr %22, i32 0, i32 4
  %24 = load ptr, ptr %23, align 8, !tbaa !19
  store ptr %24, ptr %12, align 8, !tbaa !3
  store i64 0, ptr %7, align 8, !tbaa !10
  br label %25

25:                                               ; preds = %71, %3
  %26 = load i64, ptr %7, align 8, !tbaa !10
  %27 = load i64, ptr %9, align 8, !tbaa !10
  %28 = icmp slt i64 %26, %27
  br i1 %28, label %29, label %74

29:                                               ; preds = %25
  %30 = load ptr, ptr %6, align 8, !tbaa !3
  %31 = load i64, ptr %7, align 8, !tbaa !10
  %32 = getelementptr inbounds double, ptr %30, i64 %31
  store double 0.000000e+00, ptr %32, align 8, !tbaa !8
  %33 = load ptr, ptr %10, align 8, !tbaa !17
  %34 = load i64, ptr %7, align 8, !tbaa !10
  %35 = getelementptr inbounds i64, ptr %33, i64 %34
  %36 = load i64, ptr %35, align 8, !tbaa !10
  store i64 %36, ptr %8, align 8, !tbaa !10
  br label %37

37:                                               ; preds = %67, %29
  %38 = load i64, ptr %8, align 8, !tbaa !10
  %39 = load ptr, ptr %10, align 8, !tbaa !17
  %40 = load i64, ptr %7, align 8, !tbaa !10
  %41 = add nsw i64 %40, 1
  %42 = getelementptr inbounds i64, ptr %39, i64 %41
  %43 = load i64, ptr %42, align 8, !tbaa !10
  %44 = icmp slt i64 %38, %43
  br i1 %44, label %45, label %70

45:                                               ; preds = %37
  %46 = load ptr, ptr %12, align 8, !tbaa !3
  %47 = load i64, ptr %8, align 8, !tbaa !10
  %48 = getelementptr inbounds double, ptr %46, i64 %47
  %49 = load double, ptr %48, align 8, !tbaa !8
  %50 = load ptr, ptr %12, align 8, !tbaa !3
  %51 = load i64, ptr %8, align 8, !tbaa !10
  %52 = getelementptr inbounds double, ptr %50, i64 %51
  %53 = load double, ptr %52, align 8, !tbaa !8
  %54 = fmul double %49, %53
  %55 = load ptr, ptr %5, align 8, !tbaa !3
  %56 = load ptr, ptr %11, align 8, !tbaa !17
  %57 = load i64, ptr %8, align 8, !tbaa !10
  %58 = getelementptr inbounds i64, ptr %56, i64 %57
  %59 = load i64, ptr %58, align 8, !tbaa !10
  %60 = getelementptr inbounds double, ptr %55, i64 %59
  %61 = load double, ptr %60, align 8, !tbaa !8
  %62 = load ptr, ptr %6, align 8, !tbaa !3
  %63 = load i64, ptr %7, align 8, !tbaa !10
  %64 = getelementptr inbounds double, ptr %62, i64 %63
  %65 = load double, ptr %64, align 8, !tbaa !8
  %66 = call double @llvm.fmuladd.f64(double %54, double %61, double %65)
  store double %66, ptr %64, align 8, !tbaa !8
  br label %67

67:                                               ; preds = %45
  %68 = load i64, ptr %8, align 8, !tbaa !10
  %69 = add nsw i64 %68, 1
  store i64 %69, ptr %8, align 8, !tbaa !10
  br label %37, !llvm.loop !31

70:                                               ; preds = %37
  br label %71

71:                                               ; preds = %70
  %72 = load i64, ptr %7, align 8, !tbaa !10
  %73 = add nsw i64 %72, 1
  store i64 %73, ptr %7, align 8, !tbaa !10
  br label %25, !llvm.loop !32

74:                                               ; preds = %25
  call void @llvm.lifetime.end.p0(i64 8, ptr %12) #3
  call void @llvm.lifetime.end.p0(i64 8, ptr %11) #3
  call void @llvm.lifetime.end.p0(i64 8, ptr %10) #3
  call void @llvm.lifetime.end.p0(i64 8, ptr %9) #3
  call void @llvm.lifetime.end.p0(i64 8, ptr %8) #3
  call void @llvm.lifetime.end.p0(i64 8, ptr %7) #3
  ret void
}