; Function Attrs: nofree norecurse nosync nounwind memory(read, argmem: readwrite, inaccessiblemem: none) uwtable
define void @csc_AtDA_extract_diag(ptr noundef readonly captures(none) %0, ptr noundef readonly captures(none) %1, ptr noundef writeonly captures(none) %2) local_unnamed_addr #4 {
  %4 = getelementptr inbounds nuw i8, ptr %0, i64 8
  %5 = load i64, ptr %4, align 8, !tbaa !21
  %6 = getelementptr inbounds nuw i8, ptr %0, i64 16
  %7 = load ptr, ptr %6, align 8, !tbaa !20
  %8 = getelementptr inbounds nuw i8, ptr %0, i64 24
  %9 = load ptr, ptr %8, align 8, !tbaa !23
  %10 = getelementptr inbounds nuw i8, ptr %0, i64 32
  %11 = load ptr, ptr %10, align 8, !tbaa !11
  %12 = icmp sgt i64 %5, 0
  br i1 %12, label %.lr.ph26.preheader, label %._crit_edge

.lr.ph26.preheader:                               ; preds = %3
  %.pre = load i64, ptr %7, align 8, !tbaa !17
  br label %.lr.ph26

.loopexit:                                        ; preds = %.lr.ph, %.lr.ph26
  %exitcond27.not = icmp eq i64 %15, %5
  br i1 %exitcond27.not, label %._crit_edge, label %.lr.ph26, !llvm.loop !28

.lr.ph26:                                         ; preds = %.lr.ph26.preheader, %.loopexit
  %13 = phi i64 [ %17, %.loopexit ], [ %.pre, %.lr.ph26.preheader ]
  %.025 = phi i64 [ %15, %.loopexit ], [ 0, %.lr.ph26.preheader ]
  %14 = getelementptr inbounds nuw double, ptr %2, i64 %.025
  store double 0.000000e+00, ptr %14, align 8, !tbaa !3
  %15 = add nuw nsw i64 %.025, 1
  %16 = getelementptr inbounds nuw i64, ptr %7, i64 %15
  %17 = load i64, ptr %16, align 8, !tbaa !17
  %18 = icmp slt i64 %13, %17
  br i1 %18, label %.lr.ph, label %.loopexit

.lr.ph:                                           ; preds = %.lr.ph26, %.lr.ph
  %19 = phi double [ %27, %.lr.ph ], [ 0.000000e+00, %.lr.ph26 ]
  %.02324 = phi i64 [ %28, %.lr.ph ], [ %13, %.lr.ph26 ]
  %20 = getelementptr inbounds double, ptr %11, i64 %.02324
  %21 = load double, ptr %20, align 8, !tbaa !3
  %22 = fmul double %21, %21
  %23 = getelementptr inbounds i64, ptr %9, i64 %.02324
  %24 = load i64, ptr %23, align 8, !tbaa !17
  %25 = getelementptr inbounds double, ptr %1, i64 %24
  %26 = load double, ptr %25, align 8, !tbaa !3
  %27 = tail call double @llvm.fmuladd.f64(double %22, double %26, double %19)
  store double %27, ptr %14, align 8, !tbaa !3
  %28 = add nsw i64 %.02324, 1
  %exitcond.not = icmp eq i64 %28, %17
  br i1 %exitcond.not, label %.loopexit, label %.lr.ph, !llvm.loop !29

._crit_edge:                                      ; preds = %.loopexit, %3
  ret void
}